; Function Attrs: null_pointer_is_valid sspstrong uwtable
define noundef ptr @stnode_dup(ptr noundef readonly captures(none) %0) local_unnamed_addr #0 {
  %2 = tail call noalias dereferenceable_or_null(64) ptr @g_malloc(i64 noundef 64) #14
  %3 = getelementptr inbounds nuw i8, ptr %2, i64 24
  %4 = getelementptr inbounds nuw i8, ptr %0, i64 16
  tail call void @llvm.memset.p0.i64(ptr noundef nonnull align 8 dereferenceable(16) %3, i8 0, i64 16, i1 false)
  %5 = load ptr, ptr %4, align 8
  %6 = tail call noalias ptr @g_strdup(ptr noundef %5)
  %7 = getelementptr inbounds nuw i8, ptr %2, i64 16
  store ptr %6, ptr %7, align 8
  %8 = getelementptr inbounds nuw i8, ptr %2, i64 40
  %9 = getelementptr inbounds nuw i8, ptr %0, i64 40
  tail call void @llvm.memcpy.p0.p0.i64(ptr noundef nonnull align 8 dereferenceable(16) %8, ptr noundef nonnull align 8 dereferenceable(16) %9, i64 16, i1 false)
  %10 = getelementptr inbounds nuw i8, ptr %0, i64 56
  %11 = load i16, ptr %10, align 8
  %12 = getelementptr inbounds nuw i8, ptr %2, i64 56
  store i16 %11, ptr %12, align 8
  %13 = load ptr, ptr %0, align 8
  store ptr %13, ptr %2, align 8
  %14 = icmp eq ptr %13, null
  br i1 %14, label %22, label %15

15:                                               ; preds = %1
  %16 = getelementptr inbounds nuw i8, ptr %13, i64 24
  %17 = load ptr, ptr %16, align 8
  %.not = icmp eq ptr %17, null
  %18 = getelementptr inbounds nuw i8, ptr %0, i64 8
  %19 = load ptr, ptr %18, align 8
  br i1 %.not, label %22, label %20

20:                                               ; preds = %15
  %21 = tail call ptr %17(ptr noundef %19)
  br label %22

22:                                               ; preds = %15, %1, %20
  %.sink = phi ptr [ %21, %20 ], [ null, %1 ], [ %19, %15 ]
  %23 = getelementptr inbounds nuw i8, ptr %2, i64 8
  store ptr %.sink, ptr %23, align 8
  ret ptr %2
}